; Function Attrs: mustprogress uwtable
define internal noundef i64 @_ZN5osgeo4projL18pj_curl_write_funcEPvmmS1_(ptr noundef %0, i64 noundef %1, i64 noundef %2, ptr noundef %3) #3 personality ptr @__gxx_personality_v0 {
  %5 = mul i64 %2, %1
  %6 = getelementptr inbounds nuw i8, ptr %3, i64 8
  %7 = load i64, ptr %6, align 8, !tbaa !22
  %8 = add i64 %7, %5
  %9 = load ptr, ptr %3, align 8, !tbaa !18
  %10 = getelementptr inbounds nuw i8, ptr %3, i64 16
  %11 = icmp eq ptr %9, %10
  br i1 %11, label %12, label %_ZNKSt7__cxx1112basic_stringIcSt11char_traitsIcESaIcEE8capacityEv.exit

12:                                               ; preds = %4
  %13 = icmp ult i64 %7, 16
  tail call void @llvm.assume(i1 %13)
  br label %_ZNKSt7__cxx1112basic_stringIcSt11char_traitsIcESaIcEE8capacityEv.exit

_ZNKSt7__cxx1112basic_stringIcSt11char_traitsIcESaIcEE8capacityEv.exit: ; preds = %4, %12
  %14 = load i64, ptr %10, align 8
  %15 = select i1 %11, i64 15, i64 %14
  %16 = icmp ugt i64 %8, %15
  br i1 %16, label %22, label %17

17:                                               ; preds = %_ZNKSt7__cxx1112basic_stringIcSt11char_traitsIcESaIcEE8capacityEv.exit
  %18 = sub i64 4611686018427387903, %7
  %19 = icmp ult i64 %18, %5
  br i1 %19, label %20, label %_ZNSt7__cxx1112basic_stringIcSt11char_traitsIcESaIcEE6appendEPKcm.exit

20:                                               ; preds = %17
  tail call void @_ZSt20__throw_length_errorPKc(ptr noundef nonnull @.str.92) #33
  unreachable

_ZNSt7__cxx1112basic_stringIcSt11char_traitsIcESaIcEE6appendEPKcm.exit: ; preds = %17
  %21 = tail call noundef nonnull align 8 dereferenceable(32) ptr @_ZNSt7__cxx1112basic_stringIcSt11char_traitsIcESaIcEE9_M_appendEPKcm(ptr noundef nonnull align 8 dereferenceable(32) %3, ptr noundef %0, i64 noundef %5)
  br label %22

22:                                               ; preds = %_ZNKSt7__cxx1112basic_stringIcSt11char_traitsIcESaIcEE8capacityEv.exit, %_ZNSt7__cxx1112basic_stringIcSt11char_traitsIcESaIcEE6appendEPKcm.exit
  %.0 = phi i64 [ %2, %_ZNSt7__cxx1112basic_stringIcSt11char_traitsIcESaIcEE6appendEPKcm.exit ], [ 0, %_ZNKSt7__cxx1112basic_stringIcSt11char_traitsIcESaIcEE8capacityEv.exit ]
  ret i64 %.0
}